target datalayout = "e-m:e-p270:32:32-p271:32:32-p272:64:64-i64:64-i128:128-f80:128-n8:16:32:64-S128"
target triple = "x86_64-pc-linux-gnu"

%struct._expr = type { i32, %union.anon.37, i32, i32, i32, i32 }
%union.anon.37 = type { %struct.anon.40 }
%struct.anon.40 = type { ptr, i32, ptr }
%struct.anon.58 = type { ptr, ptr, i32 }

@PyExc_ValueError = external global ptr, align 8
@.str.48 = private unnamed_addr constant [40 x i8] c"field 'value' is required for Attribute\00", align 1
@.str.49 = private unnamed_addr constant [39 x i8] c"field 'attr' is required for Attribute\00", align 1
@.str.50 = private unnamed_addr constant [38 x i8] c"field 'ctx' is required for Attribute\00", align 1

; Function Attrs: nounwind uwtable
define hidden ptr @_PyAST_Attribute(ptr noundef %0, ptr noundef %1, i32 noundef %2, i32 noundef %3, i32 noundef %4, i32 noundef %5, i32 noundef %6, ptr noundef %7) #0 {
  %9 = alloca ptr, align 8
  %10 = alloca ptr, align 8
  %11 = alloca ptr, align 8
  %12 = alloca i32, align 4
  %13 = alloca i32, align 4
  %14 = alloca i32, align 4
  %15 = alloca i32, align 4
  %16 = alloca i32, align 4
  %17 = alloca ptr, align 8
  %18 = alloca ptr, align 8
  %19 = alloca i32, align 4
  store ptr %0, ptr %10, align 8, !tbaa !34
  store ptr %1, ptr %11, align 8, !tbaa !13
  store i32 %2, ptr %12, align 4, !tbaa !38
  store i32 %3, ptr %13, align 4, !tbaa !38
  store i32 %4, ptr %14, align 4, !tbaa !38
  store i32 %5, ptr %15, align 4, !tbaa !38
  store i32 %6, ptr %16, align 4, !tbaa !38
  store ptr %7, ptr %17, align 8, !tbaa !24
  call void @llvm.lifetime.start.p0(i64 8, ptr %18) #8
  %20 = load ptr, ptr %10, align 8, !tbaa !34
  %21 = icmp ne ptr %20, null
  br i1 %21, label %24, label %22

22:                                               ; preds = %8
  %23 = load ptr, ptr @PyExc_ValueError, align 8, !tbaa !13
  call void @PyErr_SetString(ptr noundef %23, ptr noundef @.str.48)
  store ptr null, ptr %9, align 8
  store i32 1, ptr %19, align 4
  br label %68

24:                                               ; preds = %8
  %25 = load ptr, ptr %11, align 8, !tbaa !13
  %26 = icmp ne ptr %25, null
  br i1 %26, label %29, label %27

27:                                               ; preds = %24
  %28 = load ptr, ptr @PyExc_ValueError, align 8, !tbaa !13
  call void @PyErr_SetString(ptr noundef %28, ptr noundef @.str.49)
  store ptr null, ptr %9, align 8
  store i32 1, ptr %19, align 4
  br label %68

29:                                               ; preds = %24
  %30 = load i32, ptr %12, align 4, !tbaa !38
  %31 = icmp ne i32 %30, 0
  br i1 %31, label %34, label %32

32:                                               ; preds = %29
  %33 = load ptr, ptr @PyExc_ValueError, align 8, !tbaa !13
  call void @PyErr_SetString(ptr noundef %33, ptr noundef @.str.50)
  store ptr null, ptr %9, align 8
  store i32 1, ptr %19, align 4
  br label %68

34:                                               ; preds = %29
  %35 = load ptr, ptr %17, align 8, !tbaa !24
  %36 = call ptr @_PyArena_Malloc(ptr noundef %35, i64 noundef 48)
  store ptr %36, ptr %18, align 8, !tbaa !34
  %37 = load ptr, ptr %18, align 8, !tbaa !34
  %38 = icmp ne ptr %37, null
  br i1 %38, label %40, label %39

39:                                               ; preds = %34
  store ptr null, ptr %9, align 8
  store i32 1, ptr %19, align 4
  br label %68

40:                                               ; preds = %34
  %41 = load ptr, ptr %18, align 8, !tbaa !34
  %42 = getelementptr inbounds nuw %struct._expr, ptr %41, i32 0, i32 0
  store i32 21, ptr %42, align 8, !tbaa !47
  %43 = load ptr, ptr %10, align 8, !tbaa !34
  %44 = load ptr, ptr %18, align 8, !tbaa !34
  %45 = getelementptr inbounds nuw %struct._expr, ptr %44, i32 0, i32 1
  %46 = getelementptr inbounds nuw %struct.anon.58, ptr %45, i32 0, i32 0
  store ptr %43, ptr %46, align 8, !tbaa !21
  %47 = load ptr, ptr %11, align 8, !tbaa !13
  %48 = load ptr, ptr %18, align 8, !tbaa !34
  %49 = getelementptr inbounds nuw %struct._expr, ptr %48, i32 0, i32 1
  %50 = getelementptr inbounds nuw %struct.anon.58, ptr %49, i32 0, i32 1
  store ptr %47, ptr %50, align 8, !tbaa !21
  %51 = load i32, ptr %12, align 4, !tbaa !38
  %52 = load ptr, ptr %18, align 8, !tbaa !34
  %53 = getelementptr inbounds nuw %struct._expr, ptr %52, i32 0, i32 1
  %54 = getelementptr inbounds nuw %struct.anon.58, ptr %53, i32 0, i32 2
  store i32 %51, ptr %54, align 8, !tbaa !21
  %55 = load i32, ptr %13, align 4, !tbaa !38
  %56 = load ptr, ptr %18, align 8, !tbaa !34
  %57 = getelementptr inbounds nuw %struct._expr, ptr %56, i32 0, i32 2
  store i32 %55, ptr %57, align 8, !tbaa !49
  %58 = load i32, ptr %14, align 4, !tbaa !38
  %59 = load ptr, ptr %18, align 8, !tbaa !34
  %60 = getelementptr inbounds nuw %struct._expr, ptr %59, i32 0, i32 3
  store i32 %58, ptr %60, align 4, !tbaa !50
  %61 = load i32, ptr %15, align 4, !tbaa !38
  %62 = load ptr, ptr %18, align 8, !tbaa !34
  %63 = getelementptr inbounds nuw %struct._expr, ptr %62, i32 0, i32 4
  store i32 %61, ptr %63, align 8, !tbaa !51
  %64 = load i32, ptr %16, align 4, !tbaa !38
  %65 = load ptr, ptr %18, align 8, !tbaa !34
  %66 = getelementptr inbounds nuw %struct._expr, ptr %65, i32 0, i32 5
  store i32 %64, ptr %66, align 4, !tbaa !52
  %67 = load ptr, ptr %18, align 8, !tbaa !34
  store ptr %67, ptr %9, align 8
  store i32 1, ptr %19, align 4
  br label %68

68:                                               ; preds = %40, %39, %32, %27, %22
  call void @llvm.lifetime.end.p0(i64 8, ptr %18) #8
  %69 = load ptr, ptr %9, align 8
  ret ptr %69
}