; Function Attrs: nounwind uwtable
define hidden ptr @_PyAST_Attribute(ptr noundef %0, ptr noundef %1, i32 noundef %2, i32 noundef %3, i32 noundef %4, i32 noundef %5, i32 noundef %6, ptr noundef %7) local_unnamed_addr #0 {
  %.not = icmp eq ptr %0, null
  br i1 %.not, label %9, label %11

9:                                                ; preds = %8
  %10 = load ptr, ptr @PyExc_ValueError, align 8, !tbaa !4
  tail call void @PyErr_SetString(ptr noundef %10, ptr noundef nonnull @.str.48) #8
  br label %27

11:                                               ; preds = %8
  %.not25 = icmp eq ptr %1, null
  br i1 %.not25, label %12, label %14

12:                                               ; preds = %11
  %13 = load ptr, ptr @PyExc_ValueError, align 8, !tbaa !4
  tail call void @PyErr_SetString(ptr noundef %13, ptr noundef nonnull @.str.49) #8
  br label %27

14:                                               ; preds = %11
  %.not26 = icmp eq i32 %2, 0
  br i1 %.not26, label %15, label %17

15:                                               ; preds = %14
  %16 = load ptr, ptr @PyExc_ValueError, align 8, !tbaa !4
  tail call void @PyErr_SetString(ptr noundef %16, ptr noundef nonnull @.str.50) #8
  br label %27

17:                                               ; preds = %14
  %18 = tail call ptr @_PyArena_Malloc(ptr noundef %7, i64 noundef 48) #8
  %.not27 = icmp eq ptr %18, null
  br i1 %.not27, label %27, label %19

19:                                               ; preds = %17
  store i32 21, ptr %18, align 8, !tbaa !26
  %20 = getelementptr inbounds nuw i8, ptr %18, i64 8
  store ptr %0, ptr %20, align 8, !tbaa !9
  %21 = getelementptr inbounds nuw i8, ptr %18, i64 16
  store ptr %1, ptr %21, align 8, !tbaa !9
  %22 = getelementptr inbounds nuw i8, ptr %18, i64 24
  store i32 %2, ptr %22, align 8, !tbaa !9
  %23 = getelementptr inbounds nuw i8, ptr %18, i64 32
  store i32 %3, ptr %23, align 8, !tbaa !28
  %24 = getelementptr inbounds nuw i8, ptr %18, i64 36
  store i32 %4, ptr %24, align 4, !tbaa !29
  %25 = getelementptr inbounds nuw i8, ptr %18, i64 40
  store i32 %5, ptr %25, align 8, !tbaa !30
  %26 = getelementptr inbounds nuw i8, ptr %18, i64 44
  store i32 %6, ptr %26, align 4, !tbaa !31
  br label %27

27:                                               ; preds = %17, %19, %15, %12, %9
  %.0 = phi ptr [ %18, %19 ], [ null, %15 ], [ null, %12 ], [ null, %9 ], [ null, %17 ]
  ret ptr %.0
}